target datalayout = "e-m:e-p270:32:32-p271:32:32-p272:64:64-i64:64-i128:128-f80:128-n8:16:32:64-S128"
target triple = "x86_64-pc-linux-gnu"

%struct.Node = type { i32 }
%struct.Expr = type { i32 }
%union.ListCell = type { ptr }
%struct.XmlExpr = type { %struct.Expr, i32, ptr, ptr, ptr, ptr, i32, i8, i32, i32, i32 }
%struct.XmlSerialize = type { i32, i32, ptr, ptr, i8, i32 }

@.str.41 = private unnamed_addr constant [13 x i8] c"parse_expr.c\00", align 1
@.str.125 = private unnamed_addr constant [13 x i8] c"XMLSERIALIZE\00", align 1
@.str.126 = private unnamed_addr constant [38 x i8] c"cannot cast XMLSERIALIZE result to %s\00", align 1
@__func__.transformXmlSerialize = private unnamed_addr constant [22 x i8] c"transformXmlSerialize\00", align 1

; Function Attrs: inlinehint nounwind uwtable
define internal ptr @newNode(i64 noundef %0, i32 noundef %1) #4 {
  %3 = alloca i64, align 8
  %4 = alloca i32, align 4
  %5 = alloca ptr, align 8
  store i64 %0, ptr %3, align 8
  store i32 %1, ptr %4, align 4
  call void @llvm.lifetime.start.p0(i64 8, ptr %5) #8
  %6 = load i64, ptr %3, align 8
  %7 = call ptr @palloc0(i64 noundef %6)
  store ptr %7, ptr %5, align 8
  %8 = load i32, ptr %4, align 4
  %9 = load ptr, ptr %5, align 8
  %10 = getelementptr inbounds nuw %struct.Node, ptr %9, i32 0, i32 0
  store i32 %8, ptr %10, align 4
  %11 = load ptr, ptr %5, align 8
  call void @llvm.lifetime.end.p0(i64 8, ptr %5) #8
  ret ptr %11
}

; Function Attrs: nounwind uwtable
define internal ptr @transformXmlSerialize(ptr noundef %0, ptr noundef %1) #0 {
  %3 = alloca ptr, align 8
  %4 = alloca ptr, align 8
  %5 = alloca ptr, align 8
  %6 = alloca ptr, align 8
  %7 = alloca i32, align 4
  %8 = alloca i32, align 4
  %9 = alloca %union.ListCell, align 8
  store ptr %0, ptr %3, align 8
  store ptr %1, ptr %4, align 8
  call void @llvm.lifetime.start.p0(i64 8, ptr %5) #8
  call void @llvm.lifetime.start.p0(i64 8, ptr %6) #8
  call void @llvm.lifetime.start.p0(i64 4, ptr %7) #8
  call void @llvm.lifetime.start.p0(i64 4, ptr %8) #8
  %10 = call ptr @newNode(i64 noundef 64, i32 noundef 41)
  store ptr %10, ptr %6, align 8
  %11 = load ptr, ptr %6, align 8
  %12 = getelementptr inbounds nuw %struct.XmlExpr, ptr %11, i32 0, i32 1
  store i32 6, ptr %12, align 4
  %13 = load ptr, ptr %3, align 8
  %14 = load ptr, ptr %3, align 8
  %15 = load ptr, ptr %4, align 8
  %16 = getelementptr inbounds nuw %struct.XmlSerialize, ptr %15, i32 0, i32 2
  %17 = load ptr, ptr %16, align 8
  %18 = call ptr @transformExprRecurse(ptr noundef %14, ptr noundef %17)
  %19 = call ptr @coerce_to_specific_type(ptr noundef %13, ptr noundef %18, i32 noundef 142, ptr noundef @.str.125)
  store ptr %19, ptr %9, align 8
  %20 = getelementptr inbounds nuw %union.ListCell, ptr %9, i32 0, i32 0
  %21 = load ptr, ptr %20, align 8
  %22 = call ptr @list_make1_impl(i32 noundef 1, ptr %21)
  %23 = load ptr, ptr %6, align 8
  %24 = getelementptr inbounds nuw %struct.XmlExpr, ptr %23, i32 0, i32 5
  store ptr %22, ptr %24, align 8
  %25 = load ptr, ptr %3, align 8
  %26 = load ptr, ptr %4, align 8
  %27 = getelementptr inbounds nuw %struct.XmlSerialize, ptr %26, i32 0, i32 3
  %28 = load ptr, ptr %27, align 8
  call void @typenameTypeIdAndMod(ptr noundef %25, ptr noundef %28, ptr noundef %7, ptr noundef %8)
  %29 = load ptr, ptr %4, align 8
  %30 = getelementptr inbounds nuw %struct.XmlSerialize, ptr %29, i32 0, i32 1
  %31 = load i32, ptr %30, align 4
  %32 = load ptr, ptr %6, align 8
  %33 = getelementptr inbounds nuw %struct.XmlExpr, ptr %32, i32 0, i32 6
  store i32 %31, ptr %33, align 8
  %34 = load ptr, ptr %4, align 8
  %35 = getelementptr inbounds nuw %struct.XmlSerialize, ptr %34, i32 0, i32 4
  %36 = load i8, ptr %35, align 8, !range !6, !noundef !7
  %37 = trunc i8 %36 to i1
  %38 = load ptr, ptr %6, align 8
  %39 = getelementptr inbounds nuw %struct.XmlExpr, ptr %38, i32 0, i32 7
  %40 = zext i1 %37 to i8
  store i8 %40, ptr %39, align 4
  %41 = load ptr, ptr %4, align 8
  %42 = getelementptr inbounds nuw %struct.XmlSerialize, ptr %41, i32 0, i32 5
  %43 = load i32, ptr %42, align 4
  %44 = load ptr, ptr %6, align 8
  %45 = getelementptr inbounds nuw %struct.XmlExpr, ptr %44, i32 0, i32 10
  store i32 %43, ptr %45, align 8
  %46 = load i32, ptr %7, align 4
  %47 = load ptr, ptr %6, align 8
  %48 = getelementptr inbounds nuw %struct.XmlExpr, ptr %47, i32 0, i32 8
  store i32 %46, ptr %48, align 8
  %49 = load i32, ptr %8, align 4
  %50 = load ptr, ptr %6, align 8
  %51 = getelementptr inbounds nuw %struct.XmlExpr, ptr %50, i32 0, i32 9
  store i32 %49, ptr %51, align 4
  %52 = load ptr, ptr %3, align 8
  %53 = load ptr, ptr %6, align 8
  %54 = load i32, ptr %7, align 4
  %55 = load i32, ptr %8, align 4
  %56 = call ptr @coerce_to_target_type(ptr noundef %52, ptr noundef %53, i32 noundef 25, i32 noundef %54, i32 noundef %55, i32 noundef 0, i32 noundef 2, i32 noundef -1)
  store ptr %56, ptr %5, align 8
  %57 = load ptr, ptr %5, align 8
  %58 = icmp eq ptr %57, null
  br i1 %58, label %59, label %78

59:                                               ; preds = %2
  br label %60

60:                                               ; preds = %59
  br i1 true, label %61, label %63

61:                                               ; preds = %60
  %62 = call zeroext i1 @errstart_cold(i32 noundef 21, ptr noundef null) #9
  br i1 %62, label %65, label %75

63:                                               ; preds = %60
  %64 = call zeroext i1 @errstart(i32 noundef 21, ptr noundef null)
  br i1 %64, label %65, label %75

65:                                               ; preds = %63, %61
  %66 = call i32 @errcode(i32 noundef 101744772)
  %67 = load i32, ptr %7, align 4
  %68 = call ptr @format_type_be(i32 noundef %67)
  %69 = call i32 (ptr, ...) @errmsg(ptr noundef @.str.126, ptr noundef %68)
  %70 = load ptr, ptr %3, align 8
  %71 = load ptr, ptr %6, align 8
  %72 = getelementptr inbounds nuw %struct.XmlExpr, ptr %71, i32 0, i32 10
  %73 = load i32, ptr %72, align 8
  %74 = call i32 @parser_errposition(ptr noundef %70, i32 noundef %73)
  call void @errfinish(ptr noundef @.str.41, i32 noundef 2513, ptr noundef @__func__.transformXmlSerialize)
  br label %75

75:                                               ; preds = %65, %63, %61
  unreachable

76:                                               ; No predecessors!
  br label %77

77:                                               ; preds = %76
  br label %78

78:                                               ; preds = %77, %2
  %79 = load ptr, ptr %5, align 8
  call void @llvm.lifetime.end.p0(i64 4, ptr %8) #8
  call void @llvm.lifetime.end.p0(i64 4, ptr %7) #8
  call void @llvm.lifetime.end.p0(i64 8, ptr %6) #8
  call void @llvm.lifetime.end.p0(i64 8, ptr %5) #8
  ret ptr %79
}