; Function Attrs: nounwind uwtable
define internal fastcc nonnull ptr @transformXmlSerialize(ptr noundef %0, ptr noundef nonnull readonly captures(none) %1) unnamed_addr #0 {
  %3 = alloca i32, align 4
  %4 = alloca i32, align 4
  call void @llvm.lifetime.start.p0(i64 4, ptr nonnull %3) #9
  call void @llvm.lifetime.start.p0(i64 4, ptr nonnull %4) #9
  %5 = tail call noundef ptr @palloc0(i64 noundef 64) #9
  store i32 41, ptr %5, align 4
  %6 = getelementptr inbounds nuw i8, ptr %5, i64 4
  store i32 6, ptr %6, align 4
  %7 = getelementptr inbounds nuw i8, ptr %1, i64 8
  %8 = load ptr, ptr %7, align 8
  %9 = tail call fastcc ptr @transformExprRecurse(ptr noundef %0, ptr noundef %8)
  %10 = tail call ptr @coerce_to_specific_type(ptr noundef %0, ptr noundef %9, i32 noundef 142, ptr noundef nonnull @.str.125) #9
  %11 = tail call ptr @list_make1_impl(i32 noundef 1, ptr %10) #9
  %12 = getelementptr inbounds nuw i8, ptr %5, i64 32
  store ptr %11, ptr %12, align 8
  %13 = getelementptr inbounds nuw i8, ptr %1, i64 16
  %14 = load ptr, ptr %13, align 8
  call void @typenameTypeIdAndMod(ptr noundef %0, ptr noundef %14, ptr noundef nonnull %3, ptr noundef nonnull %4) #9
  %15 = getelementptr inbounds nuw i8, ptr %1, i64 4
  %16 = load i32, ptr %15, align 4
  %17 = getelementptr inbounds nuw i8, ptr %5, i64 40
  store i32 %16, ptr %17, align 8
  %18 = getelementptr inbounds nuw i8, ptr %1, i64 24
  %19 = load i8, ptr %18, align 8, !range !4, !noundef !5
  %20 = getelementptr inbounds nuw i8, ptr %5, i64 44
  store i8 %19, ptr %20, align 4
  %21 = getelementptr inbounds nuw i8, ptr %1, i64 28
  %22 = load i32, ptr %21, align 4
  %23 = getelementptr inbounds nuw i8, ptr %5, i64 56
  store i32 %22, ptr %23, align 8
  %24 = load i32, ptr %3, align 4
  %25 = getelementptr inbounds nuw i8, ptr %5, i64 48
  store i32 %24, ptr %25, align 8
  %26 = load i32, ptr %4, align 4
  %27 = getelementptr inbounds nuw i8, ptr %5, i64 52
  store i32 %26, ptr %27, align 4
  %28 = call ptr @coerce_to_target_type(ptr noundef %0, ptr noundef nonnull %5, i32 noundef 25, i32 noundef %24, i32 noundef %26, i32 noundef 0, i32 noundef 2, i32 noundef -1) #9
  %29 = icmp eq ptr %28, null
  br i1 %29, label %30, label %38

30:                                               ; preds = %2
  %31 = call zeroext i1 @errstart_cold(i32 noundef 21, ptr noundef null) #10
  call void @llvm.assume(i1 %31)
  %32 = call i32 @errcode(i32 noundef 101744772) #9
  %33 = load i32, ptr %3, align 4
  %34 = call ptr @format_type_be(i32 noundef %33) #9
  %35 = call i32 (ptr, ...) @errmsg(ptr noundef nonnull @.str.126, ptr noundef %34) #9
  %36 = load i32, ptr %23, align 8
  %37 = call i32 @parser_errposition(ptr noundef %0, i32 noundef %36) #9
  call void @errfinish(ptr noundef nonnull @.str.41, i32 noundef 2513, ptr noundef nonnull @__func__.transformXmlSerialize) #9
  unreachable

38:                                               ; preds = %2
  call void @llvm.lifetime.end.p0(i64 4, ptr nonnull %4) #9
  call void @llvm.lifetime.end.p0(i64 4, ptr nonnull %3) #9
  ret ptr %28
}